; Function Attrs: nounwind uwtable
define void @Dau_DecFindSetsTest3() local_unnamed_addr #10 {
  %1 = alloca i64, align 8
  call void @llvm.lifetime.start.p0(i64 8, ptr nonnull %1) #20
  store i64 -91518295031524336, ptr %1, align 8, !tbaa !9
  br label %.lr.ph.i

.lr.ph.i:                                         ; preds = %10, %0
  %indvars.iv.i = phi i64 [ %indvars.iv.next.i, %10 ], [ 0, %0 ]
  %2 = phi i8 [ %12, %10 ], [ 66, %0 ]
  %.01926.i = phi i32 [ %.1.i, %10 ], [ 0, %0 ]
  %3 = add i8 %2, -97
  %or.cond.i = icmp ult i8 %3, 26
  br i1 %or.cond.i, label %4, label %8

4:                                                ; preds = %.lr.ph.i
  %5 = shl nuw nsw i8 %3, 1
  %6 = zext nneg i8 %5 to i32
  %7 = shl nuw i32 1, %6
  br label %10

8:                                                ; preds = %.lr.ph.i
  %9 = add i8 %2, -65
  %or.cond24.i = icmp ult i8 %9, 26
  br i1 %or.cond24.i, label %10, label %Dau_DecReadSet.exit

10:                                               ; preds = %8, %4
  %.pn.i = phi i32 [ %7, %4 ], [ poison, %8 ]
  %.1.i = or i32 %.pn.i, %.01926.i
  %indvars.iv.next.i = add nuw nsw i64 %indvars.iv.i, 1
  %11 = getelementptr inbounds nuw i8, ptr @.str.14, i64 %indvars.iv.next.i
  %12 = load i8, ptr %11, align 1, !tbaa !31
  %exitcond = icmp eq i64 %indvars.iv.next.i, 3
  br i1 %exitcond, label %Dau_DecReadSet.exit, label %.lr.ph.i, !llvm.loop !32

Dau_DecReadSet.exit:                              ; preds = %8, %10
  %.019.lcssa.i = phi i32 [ %.01926.i, %8 ], [ %.1.i, %10 ]
  %13 = call i32 @Dau_DecPerform6(ptr noundef nonnull %1, i32 noundef 6, i32 noundef %.019.lcssa.i)
  call void @llvm.lifetime.end.p0(i64 8, ptr nonnull %1) #20
  ret void
}